(lp0
V/movie/13267/Rasbhari-s01-(2020)-hindi-complete-web-dl-720p-480p-mkv.html
p1
aV/movie/13251/Lalbazaar-s01-(2020)-hindi-complete-web-dl-720p-480p-mkv.html
p2
aV/movie/13232/Nasa-and-spacex---journey-to-the-future-s01-(2020)-dual-audio-hindi-complete-web-dl-720p-480p-mkv.html
p3
aV/movie/13204/Pati-patni-aur-woh-s01-(2020)-hindi-complete-web-dl-mx-originals-720p-480p-mkv.html
p4
aV/movie/13150/Kicko-and-super-speedo-s01-(2018)-dual-audio-hindi-complete-web-dl-nf-720p-480p-mkv.html
p5
aV/movie/13140/Space-force-s01-(2020)-dual-audio-hindi-complete-web-dl-nf-720p-480p-mkv.html
p6
aV/movie/13138/Kaali-s02-(2020)-hindi-complete-web-dl-720p-480p-mkv.html
p7
aV/movie/13127/Raktanchal-s01-(2020)-hindi-complete-mx-originals-web-dl-720p-480p-mkv.html
p8
aV/movie/13111/Betaal-s01-(2020)-hindi-complete-web-dl-720p-480p-mkv.html
p9
aV/movie/13069/Stargirl-s01-(2020)-english-dc-universe-complete-web-dl-720p-480p-mkv.html
p10
aV/movie/13040/White-lines-s01-(2020)-dual-audio-hindi-complete-web-dl-720p-480p-mkv.html
p11
aV/movie/13035/Paatal-lok-s01-(2020)-hindi-complete-web-dl-720p-480p-mkv.html
p12
aV/movie/13013/Crash-s01-(2019)-complete-hindi-dubbed-web-dl-turkish-drama-720p-480p-mkv.html
p13
aV/movie/12982/Sin-s01-(2020)-hindi-complete-web-dl-720p-480p-mkv.html
p14
aV/movie/12964/Shree-kaamdev-prasanna-s01-(2019)-dual-audio-hindi-complete-hungama-web-dl-720p-480p-mkv.html
p15
aV/movie/12875/The-last-kingdom-s04-(2020)-dual-audio-hindi-complete-web-dl-nf-720p-480p-mkv.html
p16
aV/movie/12869/Never-have-i-ever-s01-(2020)-dual-audio-hindi-complete-web-dl-720p-480p-mkv.html
p17
aV/movie/12856/Hundred-s01-(2020)-hindi-complete-web-dl-720p-480p-mkv.html
p18
aV/movie/12849/The-holiday-s01-(2020)-hindi-complete-mx-originals-web-dl-720p-480p-mkv.html
p19
aV/movie/12837/Forbidden-fruit-s01-hindi-dubbed-complete-web-dl-720p-480p-mkv.html
p20
aV/movie/12824/Too-hot-to-handle-s01-(2020)-english-complete-web-dl-720p-480p-mk.html
p21
aV/movie/12808/Hasmukh-s01-(2020)-hindi-complete-web-dl-720p-480p-mkv.html
p22
aV/movie/12804/Aaron-stone-s01-(2010)-hindi-complete-web-dl-720p-480p-mkv.html
p23
aV/movie/12788/Four-more-shots-please-s02-(2020)-hindi-complete-web-dl-720p-480p-mkv.html
p24
aV/movie/12786/Outer-banks-s01-(2020)-dual-audio-hindi-complete-web-dl-nf-720p-480p-mkv.html
p25
aV/movie/12711/Ek-thi-begum-s01-(2020)-hindi-complete-mx-originals-web-dl-720p-480p-mkv.html
p26
aV/movie/12709/The-raikar-case-s01-(2020)-hindi-complete-web-dl-voot-originals-720p-480p-mkv.html
p27
aV/movie/12684/Tron-uprising-s01-(2012)-dual-audio-hindi-complete-web-dl-720p-480p-mkv.html
p28
aV/movie/12634/Money-heist-s04-(2020)-dual-audio-english-spanish-complete-web-dl-720p-480p-mkv.html
p29
aV/movie/12630/Simple-samosa-s01-(2018)-dual-audio-hindi-complete-web-dl-720p-480p-mkv.html
p30
aV/movie/12620/Whos-your-daddy-s01--(2020)-alt-balaji-complete-web-dl-720p-480p-mkv.html
p31
aV/movie/12611/I-am-alive-estoy-vivo-s01-(2017)-hindi-complete-web-dl-720p-480p-mkv.html
p32
aV/movie/12509/Happily-ever-after-s01-(2020)-hindi-complete-web-dl-720p-480p-mkv.html
p33
aV/movie/12499/Dare-me-s01-(2019)-dual-audio-hindi-complete-web-dl-nf-720p-480p-mkv.html
p34
aV/movie/12491/The-kicks-s01-(2015)-dual-audio-hindi-complete-web-dl-720p-480p-mkv.html
p35
aV/movie/12485/Baghdad-central-s01-(2020)-hindi-complete-web-dl-720p-480p-mk.html
p36
aV/movie/12475/In-into-the-wild-with-bear-grylls-with-superstar-rajinikanth-s01-(2020)-hindi--complete-web-dl-720p-.html
p37
aV/movie/12457/The-letter-for-the-king-s01-(2020)-dual-audio-hindi-complete-web-dl-720p-480p-mkv.html
p38
aV/movie/12449/She-s01-(2020)-dual-audio-hindi-complete-web-dl-720p-480p-mkv.html
p39
aV/movie/12445/Special-ops-s01-(2020)-hindi-complete-web-dl-720p-480p-mkv.html
p40
aV/movie/12331/The-protector-s03-(2020)-dual-audio-hindi-complete-web-dl-720p-480p-mkv.html
p41
aV/movie/12263/It-happend-in-calcutta-s01-(2020)-hindi-complete-web-dl-720p-480p-mkv.html
p42
aV/movie/12230/The-gift-s01-(2019)-dual-audio-hindi-complete-web-dl-nf-720p-480p-mkv.html
p43
aV/movie/12226/I-am-not-okay-with-this-s01-(2020)-dual-audio-hindi-complete-web-dl-720p-480p-mkv.html
p44
aV/movie/12209/House-of-cards-s06-(2018)-dual-audio-hindi-complete-webrip-720p-480p-mkv.html
p45
aV/movie/12320/The-girlfriend-experience-s02-(2017)-dual-audio-hindi-complete-dual-audio-hindi-web-dl-720p-480p-mov.html
p46
aV/movie/12196/The-girlfriend-experience-s01-complete-dual-audio-hindi-web-dl-720p-480p-full-movie-mkv-mkv.html
p47
aV/movie/12193/Just-add-magic-mystery-city-s01-(2020)-dual-audio-hindi-complete-web-dl-720p-480p-mkv.html
p48
aV/movie/12137/Taj-mahal-1989-s01-(2020)-hindi-complete-web-dl-720p-480p-mkv.html
p49
aV/movie/12116/Fear-the-walking-dead-s05-(2019)-dual-audio-hindi-complete-web-dl-720p-480p-mkv.html
p50
aV/movie/12101/Locke-and-key-s01-(2020)-dual-audio-hindi-complete-web-dl-720p-480p-mkv.html
p51
aV/movie/12067/Ganika-s01-(2020)-hindi-complete-hdrip-ullu-720p-480p-mkv.html
p52
aV/movie/12542/Ozark-s03-(2020)-dual-audio-hindi-complete-web-dl-nf-720p-480p-mkv.html
p53
aV/movie/12215/Ozark-s02-(2018)-dual-audio-hindi-complete-web-dl-nf-720p-480p-mkv.html
p54
aV/movie/12058/Ozark-s01-(2017)-dual-audio-hindi-complete-web-dl-nf-720p-480p-mkv.html
p55
aV/movie/11990/Star-trek-picard-s01-(2020)-dual-audio-hindi-complete-web-dl-720p-480p-mkv.html
p56
aV/movie/12005/Chilling-adventures-of-sabrina-s02-(2019)-dual-audio-hindi-complete-web-dl-720p-480p-mkv.html
p57
aV/movie/11996/Chilling-adventures-of-sabrina-s01-(2018)-dual-audio-hindi-complete-web-dl-720p-480p-mkv.html
p58
aV/movie/11983/Chilling-adventures-of-sabrina-s03-(2020)-dual-audio-hindi--complete-web-dl-720p-480p-mkv.html
p59
aV/movie/11971/October-faction-s01-(2020)-dual-audio-hindi-complete-web-dl-720p-480p-mkv.html
p60
aV/movie/12238/Altered-carbon-s02-(2020)-web-dl-dual-audio-hindi-720p-480p-movie-mkv.html
p61
aV/movie/11970/Altered-carbon-(2018)-webdl-dual-audio-hindi-720p-480p-movie-mkv.html
p62
aV/movie/11912/The-healing-powers-of-dude-s01-(2020)-dual-audi-hindi-complete-web-dl-720p-480p-mkv.html
p63
aV/movie/11906/Treadstone-s01-(2019)-dual-audio-hindi-complete-web-dl-prime-720p-480p-mkv.html
p64
aV/movie/11957/Sex-education-s02-(2020)-dual-audio-hindi-complete-web-dl-720p-480p-mkv.html
p65
aV/movie/11866/Sex-education-s01-(2019)-dual-audio-hindi-complete-web-dl-720p-480p-mkv.html
p66
aV/movie/11840/Dracula-s01-(2020)-dual-audio-hindi-complete-web-dl-nf-720p-480p-mkv.html
p67
aV/movie/12276/Vikings-s06-(2020)-dual-audio-hindi-complete-web-dl-720p-480p-mkv.html
p68
aV/movie/12271/Vikings-s05-(2019)-dual-audio-hindi-complete-web-dl-720p-480p-mkv.html
p69
aV/movie/11910/Vikings-s04-(2017)-dual-audio-hindi-complete-web-dl-720p-480p-mkv.html
p70
aV/movie/11884/Vikings-s03-(2015)-dual-audio-hindi-complete-web-dl-720p-480p-mkv.html
p71
aV/movie/11845/Vikings-s02-(2014)-dual-audio-hindi-complete-web-dl-720p-480p-mkv.html
p72
aV/movie/11838/Vikings-s01-(2013)-dual-audio-hindi-complete-web-dl-720p-480p-mkv.html
p73
aV/movie/11830/Spinning-out-s01-(2020)-dual-audio-hindi-complete-web-dl-nf-720p-480p-mkv.html
p74
aV/movie/11792/Fast-and-furious-spy-racers-dual-audio-hindi-seasons-01-complete-720p-480p-web-dl-mkv.html
p75
aV/movie/11799/You-s01-(2018)-dual-audio-hindi-complete-web-dl-720p-480p-mkv.html
p76
aV/movie/11788/You-s02-(2019)-dual-audio-hindi-complete-web-dl-720p-480p-mkv.html
p77
aV/movie/11769/Soundtrack-s01-(2019)-dual-audio-hindi-complete-web-dl-esubs-720p-480p-mkv.html
p78
aV/movie/12292/Jessica-jones-s02-(2018)-dual-audio-hindi-complete-web-dl-nf-720p-480p-mkv.html
p79
aV/movie/11736/Jessica-jones-s01-(2015)-dual-audio-hindi-complete-web-dl-nf-720p-480p-mkv.html
p80
aV/movie/11668/Inside-edge-s02-(2019)-complete-web-dl-720p-480p-mkv.html
p81
aV/movie/12212/Daredevil-s03-(2018)-dual-audio-hindi-complete-webdl-nf-720p-480p-mkv.html
p82
aV/movie/12118/Marvels-daredevil-s02-(2016)-dual-audio-hindi--complete-web-dl-nf-720p-480p-mkv.html
p83
aV/movie/11667/Daredevil-s01-(2015)-dual-audio-hindi-complete-marvel-web-dl-720p-480p-mkv.html
p84
aV/movie/11646/Step-up-high-water-s01-(2019)-hindi-complete-web-dl-720p-480p-mkv.html
p85
aV/movie/12225/Orange-is-the-new-black-s07-(2019)-dual-audio-hindi-complete-nf-web-dl-720p-480p-mkv.html
p86
aV/movie/12205/Orange-is-the-new-black-s06-(2016)-dual-audio-hindi-complete-nf-web-dl-720p-480p-mkv.html
p87
aV/movie/12204/Orange-is-the-new-black-s05-(2016)-dual-audio-hindi-complete-nf-web-dl-720p-480p-mkv.html
p88
aV/movie/11952/Orange-is-the-new-black-s04-(2016)-dual-audio-hindi-complete-nf-web-dl-720p-480p-mkv.html
p89
aV/movie/11717/Orange-is-the-new-black-s03-(2015)-dual-audio-hindi-complete-nf-web-dl-720p-480p-mkv.html
p90
aV/movie/11619/Orange-is-the-new-black-s02-(2014)-dual-audio-hindi-complete-nf-web-dl-720p-480p-mkv.html
p91
aV/movie/11604/Orange-is-the-new-black-s01-(2013)-dual-audio-hindi-complete-nf-web-dl-720p-480p-mkv.html
p92
aV/movie/11589/Helpsters-s01-(2019)-hindi-complete-web-dl-720p-480p-mkv.html
p93
aV/movie/11576/Dolly-partons-heartstrings-s01-(2019)-dual-audio-hindi-complete-nf-web-dl-720p-480p-mkv-.html
p94
aV/movie/11574/Pending-love-s01-(2019)-hindi-complete-web-dl-720p-480p-mkv.html
p95
aV/movie/11559/Green-eggs-and-ham-s01-(2019)-dual-audio-hindi-complete-nf-web-dl-720p-480p-mkv.html
p96
aV/movie/11531/Auction-s01-(2019)-hindi-complete-web-dl-720p-480p-mkv.html
p97
aV/movie/11487/Little-things-s03-(2019)-dual-audio-hindi-complete-nf-web-dl-720p-480p-mkv.html
p98
aV/movie/11528/Tom-clancys-jack-ryan-s01-(2018)-dual-audio-hindi-complete-720p-480p-web-dl-mkv.html
p99
aV/movie/11416/Tom-clancys-jack-ryan-(2019)-s02-dual-audio-hindi-complete-720p-480p-web-dl-mkv.html
p100
aV/movie/11379/Daybreak-s01-(2019)-dual-audio-hindi-complete-nf-web-dl-720p-480p-mkv.html
p101
aV/movie/11367/The-suite-life-of-zack-and-cody-seasion--hindi-dubbed-01-complate-720p-480p-web-dl-mkv.html
p102
aV/movie/11896/Lucifer-s03-(2018)-dual-audio-hindi-complete-nf-web-dl-720p-480p-mkv.html
p103
aV/movie/11361/Lucifer-s02-(2017)-dual-audio-hindi-complete-nf-web-dl-720p-480p-mkv.html
p104
aV/movie/11351/Lucifer-s01-(2016)-dual-audio-hindi-complete-nf-web-dl-720p-480p-mkv.html
p105
aV/movie/11332/The-purge-(2019)-seasion-2-dual-audio-hindi-complate-720p-480p-web-hd-mkv.html
p106
aV/movie/11330/Living-with-yourself-s01-(2019)-dual-audio-hindi-complete-nf-web-dl-720p-480p-mkv.html
p107
aV/movie/11312/The-unlisted-(2019)-dual-audio-hindi-seasons-01-complate-720p-480p-web-dl-mkv.html
p108
aV/movie/13188/13-reasons-why-s04-(2020)-dual-audio-hindi-complete-nf-web-dl-720p-480p-mkv.html
p109
aV/movie/11309/13-reasons-why-s03-(2019)-dual-audio-hindi-complete-nf-web-dl-720p-480p-mkv.html
p110
aV/movie/11299/13-reasons-why-s02-(2018)-dual-audio-hindi-complete-nf-web-dl-720p-480p-mkv.html
p111
aV/movie/11283/Tharkistann-s01-(2019)-hindi-complete-web-dl-720p-480p-mkv.html
p112
aV/movie/11269/Julie-(2019)-s01-hindi-complete-720p-web-dl-mkv.html
p113
aV/movie/11260/The-last-kids-on-earth-(2019)-season-1--dual-audio-hindi-complate-720p-480p-web-dl-mkv.html
p114
aV/movie/11253/The-flash-s06-(2019)-english-complete-720p-480p-mkv.html
p115
aV/movie/11231/Raising-dion-s01-(2019)-dual-audio-hindi-complete-webrip-nf-720p-480p-mkv.html
p116
aV/movie/11222/My-first-love-(2018)-seasons-01-hindi-dubbed-complete-web-dl-720p-480p-mkv.html
p117
aV/movie/11275/Alexa-and-katie-s02-(2018)-dual-audio-hindi-complete-nf-web-dl-720p-480p-mkv.html
p118
aV/movie/11195/Alexa-and-katie-s01-(2018)-dual-audio-hindi-complete-nf-web-dl-720p-480p-mkv.html
p119
aV/movie/11180/The-politician-s01-(2019)-dual-audio-hindi-complete-nf-web-dl-720p-480p-mkv.html
p120
aV/movie/11177/Shubhratri-s01-(2019)-hindi-ullu-complete-web-dl-720p-480p-mkv.html
p121
aV/movie/11176/Baby-and-babu-s01-(2019)-bengali-jeeoguru-originals-complete-web-dl-720p-480p-mkv.html
p122
aV/movie/11158/Mishmi-s01-(2019)-hindi-complete-jeeoguru-originals-web-dl-720p-480p-mkv.html
p123
aV/movie/11156/Team-kaylie-s01-(2019)-dual-audio-hindi-complete-nf-web-dl-720p-480p-mkv.html
p124
aV/movie/11152/The-girl-named-feriha-season-01-complete-hindi-dubbed-720p-480p-hdrip-mkv.html
p125
aV/movie/11145/Fuh-se-fantasy-s01-(2019)-hindi-complete-voot-originals-web-dl-720p-480p-mkv.html
p126
aV/movie/11144/Love-death-and-robots-s01-(2019)-dual-audio-hindi-complete-nf-web-dl-720p-480p-mkv.html
p127
aV/movie/11141/Inside-bills-brain-decoding-bill-gates-s01-(2019)-dual-audio-hindi-complete-nf-web-dl-720p-480p-mkv.html
p128
aV/movie/11138/Criminal-uk-s01-(2019)-dual-audio-hindi-complete-nf-web-dl-720p-480p-mkv.html
p129
aV/movie/11133/Criminal-spain-s01-(2019)-dual-audio-hindi-complete-nf-web-dl-720p-480p-mkv.html
p130
aV/movie/11132/Criminal-germany-s01-(2019)-dual-audio-hindi-complete-nf-web-dl-720p-480p-mkv.html
p131
aV/movie/11131/Criminal-france-s01-(2019)-dual-audio-hindi-complete-nf-web-dl-720p-480p-mkv.html
p132
aV/movie/11123/The-family-man-s01-(2019)-hindi-complete-720p-480p-web-dl-mkv.html
p133
aV/movie/11087/Top-boy-s01-(2019)-dual-audio-hindi-complete-nf-web-dl-720p-480p-mkv.html
p134
aV/movie/11085/Xyx-(2019)-hindi-s01-complete-720p-480p-web-dl-mkv.html
p135
aV/movie/11076/Unbelievable-s01-(2019)-dual-audio-hindi-complete-nf-web-dl-720p-480p-mkv.html
p136
aV/movie/11069/The-i-land-s01-(2019)-dual-audio-hindi-complete-nf-web-dl-720p-480p-mkv.html
p137
aV/movie/11064/Mission-over-mars-(2019)-all-episodes-hindi-complete-720p-480p-web-dl-mkv.html
p138
aV/movie/11038/Chhoriyan-s01-(2019)-hindi-complete-720p-480p-web-dl-mkv.html
p139
aV/movie/11029/The-spy-s01-(2019)-dual-audio-hindi-complete-nf-web-dl-720p-480p-mkv.html
p140
aV/movie/11005/The-a-list-s01-(2018)-dual-audio-hindi-complete-nf-web-dl-720p-480p-mkv.html
p141
aV/movie/11447/The-end-of-the-fucking-world-s02-(2019)-dual-audio-hindi-complete-nf-webrip-720p-480p-mkv.html
p142
aV/movie/11004/The-end-of-the-fucking-world-s01-(2017)-dual-audio-hindi-complete-nf-webrip-720p-480p-mkv.html
p143
aV/movie/10999/The-dark-crystal-age-of-resistance-s01-(2019)-dual-audio-hindi-complete-nf-web-dl-720p-480p-mkv.html
p144
aV/movie/10996/Skull-and-roses-(2019)-s01-hindi-complete-720p-480p-web-dl-mkv.html
p145
aV/movie/10995/Charmsukh-(mom-and-daughter)-2019-s01-complete-hindi-720p-480p-web-dl-mkv.html
p146
aV/movie/11287/Insatiable-s02-(2019)-dual-audio-hindi-complete-web-dl-720p-480p-mkv.html
p147
aV/movie/10994/Insatiable-s01-(2018)-dual-audio-hindi-complete-web-dl-720p-480p-mkv.html
p148
aV/movie/11885/Titans-season-s02-(2019)-dual-audio-hindi-complete-web-dl-720p-480p-mkv.html
p149
aV/movie/11057/Titans-season-s02-(2019)-english-complete-web-dl-720p-480p-mkv.html
p150
aV/movie/10952/Titans-season-s01-(2018)-dual-audio-hindi-complete-web-dl-720p-480p-mkv.html
p151
aV/movie/10942/Hyperdrive-(2019)-s01-dual-audio-hindi-complete-720p-480p-web-dl-mkv.html
p152
aV/movie/10936/Trollhunters-tales-of-arcadia-s01-(2016)-dual-audio-hindi-complete-web-dl-nf-720p-480p-mkv.html
p153
aV/movie/10911/Comicstaan-(2019)-s02-hindi-complete-720p-480p-web-dl-mkv.html
p154
aV/movie/11697/Black-mirror-s03-(2016)-dual-audio-hindi-complete-web-dl-nf-720p-480p-mkv.html
p155
aV/movie/11580/Black-mirror-s02-(2014)-dual-audio-hindi-complete-web-dl-nf-720p-480p-mkv.html
p156
aV/movie/11521/Black-mirror-s01-(2011)-dual-audio-hindi-complete-web-dl-nf-720p-480p-mkv.html
p157
aV/movie/10906/Size-matters-s01-(2019)-hindi-complete-web-dl-720p-480p-mkv-.html
p158
aV/movie/11110/The-terror-s01-(2018)-dual-audio-hindi-complete-web-dl-nf-720p-480p-mkv.html
p159
aV/movie/10905/The-terror-s02-(2019)-dual-audio-hindi-complete-web-dl-nf-720p-480p-mkv.html
p160
aV/movie/10884/Man-vs-wild-with-bear-grylls-and-pm-modi-hindi-720p-mkv.html
p161
aV/movie/10877/The-family-s01-(2019)-dual-audio-hindi-complete-web-dl-nf-720p-480p-mkv.html
p162
aV/movie/10873/Bad-blood-s01-(2017)-dual-audio-hindi-web-dl-nf-720p-480p-mkv.html
p163
aV/movie/11474/Mindhunter-s02-(2019)-dual-audio-hindi-complete-web-dl-nf-720p-480p-mkv.html
p164
aV/movie/10935/Mindhunter-(2019)-s02-english-complete-720p-480p-web-dl-mkv.html
p165
aV/movie/10867/Mindhunter-s01-(2017)-dual-audio-hindi-complete-web-dl-nf-720p-480p-mkv.html
p166
aV/movie/10866/Wanna-have-a-good-time-s02-(2019)-hindi-complete-web-dl-720p-480p-mkv.html
p167
aV/movie/10861/Wu-assassins-s01-dual-audio-hindi-complete-web-dl-nf-720p-480p-mkv.html
p168
aV/movie/10809/The-boys-s01-(2019)-english-complete-web-dl-720p-480p-mkv.html
p169
aV/movie/10799/Stories-by-rabindranath-tagore-2015-hindi-series-01-complate-720p-480p-hdrip-mkv.html
p170
aV/movie/10798/Stories-by-rabindranath-tagore-(2015)-hindi-series-01-complate-720p-480p-hdrip-mkv.html
p171
aV/movie/10793/Avengers-endgame-(2019)-extras-deleted-scenes-hdrip-720p-400mb.html
p172
aV/movie/10786/The-chef-show-s01-(2019)-dual-audio-hindi-complete-web-dl-720p-480p-mkv.html
p173
aVhttp://moviemad.biz/movie/10678/Madagascar-(2005)-bluray-dual-audio-hindi-720p-480p-movie-mkv.html
p174
aVhttp://moviemad.biz/movie/10688/Madagascar-escape-2-africa-(2008)-bluray-dual-audio-hindi-720p-480p-movie-mkvbluray-dual-audio-hindi.html
p175
aVhttp://moviemad.biz/movie/10713/Madagascar-3-europes-most-wanted-(2012)-bluray-dual-audio-hindi-720p-480p-movie-mkv.html
p176
aV/movie/10758/Gandii-baat-(2019)-season-3-hindi-complete-web-dl-720p-480p-mkv.html
p177
aV/movie/10755/Gandii-baat-(2019)-season-2-hindi-complete-web-dl-720p-480p-mkv.html
p178
aV/movie/10749/Gandii-baat-(2018)-season-1-hindi-complete-web-dl-720p-480p-mkv.html
p179
aV/movie/10746/Another-life-s01-(2019)-web-dl-dual-audio-hindi-english-720p-480p-1080p-movie-mkv.html
p180
aV/movie/10728/Dexters-laboratory-(1996)-s01-hdrip-dual-audio-hindi-720p-480p-movie-mkv.html
p181
aV/movie/10750/Metoo-wolf-of-bollywood-part-2-(2019)-hindi-complete-web-dl-720p-480p-mkv.html
p182
aV/movie/10705/Metoo-wolf-of-bollywood-part-1-(2019)-hindi-complete-web-dl-720p-480p-mkv.html
p183
aV/movie/10679/Chernobyl-(2019)-s01-hindi-complete-480p-webrip-full-series-mkv.html
p184
aV/movie/10674/Into-the-badlands-season-3-dual-audio-hindi-complete-720p-web-dl-full-series-mkv.html
p185
aVhttps://moviemad.biz/movie/9900/Hellboy-(2004)-directors-cut-bluray-dual-audio-hindi-720p-480p-movie-mkv.html
p186
aVhttp://moviemad.biz/movie/9902/Hellboy-ii-the-golden-army-(2008)-dual-audio-hindi-720p-480p-1080p-bluray-full-movie-download-mkv.html
p187
aVhttp://moviemad.biz/movie/9932/Hellboy-(2019)-dual-audio-hindi-720p-480p-1080p-movie-mkv.html
p188
aV/movie/10626/Tales-of-the-city-s01-(2019)-dual-audio-hindi-complate-series-720p-480p-web-dl-mkv.html
p189
aV/movie/10613/Kong-king-of-the-apes-s02e01-dual-audio-hindi-720p-web-dl-mkv.html
p190
aV/movie/11605/The-dragon-prince-(2019)-s03-dual-audio-hindi-complete-720p-480p-web-dl-mkv.html
p191
aV/movie/10581/The-dragon-prince-(2019)-s02-dual-audio-hindi-complete-720p-480p-web-dl-mkv.html
p192
aVhttp://moviemad.biz/movie/10516/Final-destination-(2000)-bluray-dual-audio-hindi-720p-480p-movie-mkv.html
p193
aVhttp://moviemad.biz/movie/10530/Final-destination-2-(2003)-bluray-dual-audio-hindi-720p-480p-movie-mkv.html
p194
aVhttp://moviemad.biz/movie/10543/Final-destination-3-(2006)-bluray-dual-audio-hindi-720p-480p-movie-mkv.html
p195
aVhttp://moviemad.biz/movie/10551/The-final-destination-4-(2009)-bluray-dual-audio-hindi-720p-480p-movie-mkv.html
p196
aVhttp://moviemad.biz/movie/10561/Final-destination-5-(2011)-bluray-dual-audio-hindi-720p-480p-movie-mkv.html
p197
aV/movie/10560/Stranger-things-s02-(2017)-dual-audio-hindi-complate-series-720p-480p-web-dl-mkv.html
p198
aVhttp://moviemad.biz/movie/10427/Spider-man-(2002)-bluray-dual-audio-hindi-720p-480p-1080p-movie-mkv.html
p199
aVhttp://moviemad.biz/movie/10455/Spider-man-2-(2004)-extended-bluray-dual-audio-hindi-esubs-720p-480p-1080p-movie-mkv.html
p200
aVhttp://moviemad.biz/movie/10493/Spider-man-3-(2007)-bluray-dual-audio-hindi-720p-480p-1080p-movie-mkv.html
p201
aV/movie/10548/The-dragon-prince-season-1-complate-dual-audio-hindi-720p-web-dl-full-series-mkv.html
p202
aV/movie/10533/Gone-case-s01-(2019)-bengali-complete-series-web-hd-720p-480p-download-mkv.html
p203
aV/movie/10522/Stranger-things-s01-dual-audio-hindi-complate-series-720p-480p-webrip-mkv.html
p204
aV/movie/10518/Mona-home-delivery-part-2-(2019)-complete-hindi-720p-480p-web-dl-full-series-download-mkv.html
p205
aVhttps://1xbetmovies.in/
p206
aV/category/256/Bollywood-movies/default/1.html
p207
aV/category/260/Hollywood-english-movies/default/1.html
p208
aV/category/258/Hollywood-hindi-dual-audio-movies-english-/default/1.html
p209
aV/category/262/Series-film-lists/default/1.html
p210
aV/category/263/Punjabi-movies/default/1.html
p211
aV/category/259/South-indian-hindi-dubbed-movies/default/1.html
p212
aV/category/261/Bollywood-old-movies/default/1.html
p213
aV/category/264/Marathi-movies/default/1.html
p214
aV/category/265/Gujarati-movies/default/1.html
p215
aV/category/266/Bengali-movies/default/1.html
p216
aV/category/267/Wwe-shows-/default/1.html
p217
aV/category/268/Wwe-raw-shows/default/1.html
p218
aV/category/269/Wwe-smackdown-shows/default/1.html
p219
aV/category/270/Indian-tv-shows-/default/1.html
p220
aV/category/549/Web-series-[18+]/default/1.html
p221
aV/category/594/Bhojpuri-movies/default/1.html
p222
aVhttps://bit.ly/2YFzXDU
p223
aV/services/disclaimer.html
p224
aV/how-to-download-movies/
p225
aVhttps://www.facebook.com/moviemad.in/
p226
aV/movie/10452/Mona-home-delivery-(2019)-complete-hindi-720p-web-dl-full-series-mkv.html
p227
aV/movie/10439/Mr-robot-s03-dual-audio-hindi-complate-series-720p-480p-web-dl-download-mkv.html
p228
aV/movie/10430/Chernobyl-(2019)-s01-english-complete-720p-480p-web-dl-full-series-mkv.html
p229
aV/movie/10410/Marvels-jessica-jones-(2019)-s03-english-complete-720p-web-dl-full-series-mkv.html
p230
aV/movie/10400/Trinkets-s01-(2019)-dual-audio-hindi-complate-series-720p-480p-1080p-web-dl-mkv.html
p231
aV/movie/10383/Jinn-(2019)-s01-dual-audio-hindi-complete-720p-web-dl-full-series-mkv.html
p232
aV/movie/10375/Making-a-murderer-(2019)-s02-dual-audio-hindi-complete-480p-web-dl-full-series-mkv.html
p233
aV/movie/10374/Mr-robot-s02-dual-audio-hindi-complate-series-720p-480p-bluray-mkv.html
p234
aV/movie/10369/Mr-robot-s01-dual-audio-hindi-complate-series-720p-480p-bluray.html
p235
aV/movie/10350/Swamp-thing-(2019)-s01-english-complate-720p-web-dl-full-series-mkv.html
p236
aV/movie/10347/Nos4a2-(2019)-s01-dual-audio-hindi-complate-720p-480p-web-dl-full-series-mkv.html
p237
aV/movie/10342/Dead-to-me-(2019)-s01-dual-audio-hindi-complete-720p-web-dl-full-series-mkv.html
p238
aV/movie/10333/Happy-(2017)-dual-audio-hindi-complate-720p-480p-web-dl-full-series-mkv.html
p239
aV/movie/10324/Drishtibhram-2019-hindi-web-series-complete-720p-480p-web-dl-full-series-mkv.html
p240
aV/movie/10240/What-if-2019-s01-dual-audio-hindi-complete-480p-web-dl-full-series-mkv.html
p241
aV/movie/10238/Panchali-2019-s01-complete-hindi-720p-webrip-full-series-mkv.html
p242
aVhttp://moviemad.pw/movie/9990/The-matrix-1999-dual-audio-hindi-720p-480p-bluray-full-movie-mkv.html
p243
aVhttp://moviemad.pw/movie/9991/The-matrix-reloaded-2003-dual-audio-hindi-1080p-720p-480p-bluray-full-movie-mkv.html
p244
aVhttp://moviemad.pw/movie/10007/The-matrix-revolutions-2003-dual-audio-hindi-1080p-720p-480p-bluray-full-movie-mkv.html
p245
aV/movie/10216/Game-of-thrones-s04-bluray-all-episodes-download-in-hindi-dual-audio-english.html
p246
aV/movie/10180/Kota-factory-(2019)-hindi-s01-complete-720p-480p-1080p-hdrip.html
p247
aV/movie/10146/Secret-garden-2010-complete-hindi-dubbed-720p-hdrip-full-series-mkv.html
p248
aV/movie/10126/The-society-season-1-dual-audio-hindi-complete-720p-hdrip-full-series-mkv.html
p249
aVhttp://moviemad.name/movie/8349/Deadpool-2-(2018)-dual-audio-hindi-full-movie-720p-480p-mkv.html
p250
aVhttp://moviemad.name/movie/9290/Logan-2017-bluray-dual-audio-hindi-720p-480p-full-movie-mkv.html
p251
aVhttp://moviemad.name/movie/10087/X-men-apocalypse-(2016)-bluray-dual-audio-hindi-720p-480p-1080p-movie-mkv.html
p252
aVhttp://moviemad.name/movie/8606/Deadpool-2016-bluray-dual-audio-hindi-720p-480p-mkv.html
p253
aVhttp://moviemad.name/movie/9283/X-men-days-of-future-past-2014-bluray-dual-audio-hindi-720p-480p-full-movie-mkv.html
p254
aVhttp://moviemad.biz/movie/10124/The-wolverine-(2013)-extended-bluray-dual-audio-hindi-720p-480p-movie-mkv.html
p255
aVhttp://moviemad.name/movie/10040/X-men-first-class-(2011)-bluray-dual-audio-hindi-720p-480p-1080p-movie-mkv.html
p256
aVhttp://moviemad.name/movie/10034/X-men-origins-wolverine-(2009)-bluray-dual-audio-hindi-720p-480p-movie-mkv.html
p257
aVhttp://moviemad.name/movie/10016/X-men-the-last-stand-(2006)-bluray-dual-audio-hindi-720p-480p-movie-mkv.html
p258
aVhttp://moviemad.name/movie/9995/X-men-united-(2003)-bluray-dual-audio-hindi-720p-480p-movie-mkv.html
p259
aVhttp://moviemad.name/movie/9982/X-men-(2000)-bluray-dual-audio-hindi-720p-480p-movie-mkv.html
p260
aV/movie/10098/Baahubali-the-lost-legends-(2019)-s04-complete-hindi-720p-web-dl-full-series-mkv.html
p261
aV/movie/10096/Game-of-thrones-s08-complete-series-dual-audio-hindi-720p-full-series-mkv.html
p262
aV/movie/10093/3g-gaali-galoch-girls-(2019)-season-01-hindi-720p-hdrip.html
p263
aV/movie/10037/The-protector-2018-season-02-turkish-series-hindi-dubbed-720p-web-dl-full-series-mkv.html
p264
aVhttp://moviemad.pw/movie/9918/Pirates-of-the-caribbean-the-curse-of-the-black-pearl-(2003)-bluray-dual-audio-hindi-720p-480p-1080p.html
p265
aVhttp://moviemad.pw/movie/9925/Pirates-of-the-caribbean-dead-mans-chest-(2006)-bluray-dual-audio-hindi-720p-480p-1080p-movie-mkv.html
p266
aVhttp://moviemad.pw/movie/9931/Pirates-of-the-caribbean-at-worlds-end-(2007)-brrip-dual-audio-hindi-720p-480p-movie-mkv.html
p267
aVhttp://moviemad.pw/movie/9937/Pirates-of-the-caribbean-on-stranger-tides-(2011)-dual-audio-hindi-720p-480p-bluray-full-movie-mkv.html
p268
aVhttp://moviemad.pw/movie/8284/Pirates-of-the-caribbean-dead-men-tell-no-tales-2017-bluray-dual-audio-hindi-org-1080p-720p-480p-mkv.html
p269
aV/movie/9919/Game-of-thrones-s05-complete-english-720p-brrip-full-series-mkv.html
p270
aVhttp://moviemad.biz/movie/9900/Hellboy-(2004)-directors-cut-bluray-dual-audio-hindi-720p-480p-movie-mkv.html
p271
aVhttp://moviemad.biz/movie/9902/Hellboy-ii-the-golden-army-(2008)-dual-audio-hindi-720p-480p-1080p-bluray-full-movie-download-mkv.html
p272
aV/movie/9826/Halala-2019-hindi-web-series-complete-720p-web-dl-full-movie-mkv.html
p273
aV/movie/9802/Flip-2019-hindi-web-series-complete-720p-web-dl-full-series-mkv.html
p274
aV/movie/9795/Delhi-crime-2019-web-series-complete-hindi-720p-web-dl-full-series-mkv.html
p275
aVhttp://moviemad.biz/movie/9783/300-(2006)-bluray-dual-audio-hindi-720p-480p-movie-mkv.html
p276
aVhttp://moviemad.biz/movie/9791/300-rise-of-an-empire-(2014)-bluray-dual-audio-hindi-720p-480p-movie-mkv.html
p277
aVhttp://moviemad.biz/movie/10986/American-pie-2-(2001)-bluray-dual-audio-hindi-720p-480p-movie-mkv.html
p278
aVhttp://moviemad.biz/movie/10322/American-pie-presents-beta-house-(2007)-web-hd-dual-audio-hindi-720p-480p-movie-mkv.html
p279
aVhttp://moviemad.link/movie/9778/American-pie-presents-the-book-of-love-(2009)-bluray-dual-audio-hindi-720p-480p-movie-mkv.html
p280
aVhttp://moviemad.biz/movie/8292/American-reunion-(2012)-unrated-bluray-dual-audio-hindi-720p-480p-mkv.html
p281
aVhttp://moviemad.biz/movie/8961/American-wedding-2003-bluray-dual-audio-hindi-720p-480p-full-movie-mkv.html
p282
aVhttp://moviemad.biz/movie/8293/American-pie-presents-the-naked-mile-(2006)-webrip-dual-audio-hindi-720p-480p-mkv.html
p283
aVhttp://moviemad.biz/movie/9481/American-pie-presents-band-camp-(2005)-bluray-dual-audio-hindi-720p-480p-movie-mkv.html
p284
aV/movie/9658/Sex-drugs-and-theatre-2019-hindi-web-series-complete-720p-web-dl-full-series.html
p285
aVhttp://moviemad.name/movie/9571/Furious-seven-2015-dual-audio-hindi-720p-480p-bluray-full-movie-mkv.html
p286
aVhttp://moviemad.name/movie/9578/The-fast-and-the-furious-2001-dual-audio-hindi-720p-480p-bluray-full-movie-mkv.html
p287
aVhttp://moviemad.name/movie/9580/The-fast-and-the-furious-tokyo-drift-2006-dual-audio-hindi-720p-480p-bluray-full-movie-mkv.html
p288
aVhttp://moviemad.name/movie/9534/2-fast-2-furious-2003-dual-audio-hindi-720p-480p-blurayfull-movie-mkv.html
p289
aVhttp://moviemad.name/movie/9553/Fast-and-furious-2009-dual-audio-hindi-720p-480p-bluray-full-movie-mkv.html
p290
aVhttp://moviemad.name/movie/9540/Fast-and-furious-5-2011-dual-audio-hindi-720p-480p-bluray-full-movie-mkv.html
p291
aVhttp://moviemad.name/movie/9545/Fast-and-furious-6-2013-dual-audio-hindi-720p-480p-bluray-full-movie-mkv.html
p292
aVhttp://moviemad.name/movie/8287/The-fate-of-the-furious-2017-bluray-dual-audio-hindi-org-720p-480p-mkv.html
p293
aVhttp://moviemad.biz/movie/9526/Rise-of-the-planet-of-the-apes-(2011)-bluray-dual-audio-hindi-720p-480p-movie-mkv.html
p294
aVhttp://moviemad.biz/movie/9486/Dawn-of-the-planet-of-the-apes-(2014)-bluray-dual-audio-hindi-720p-480p-movie-mkv.html
p295
aVhttp://moviemad.biz/movie/9538/War-for-the-planet-of-the-apes-(2017)-bluray-dual-audio-hindi-720p-480p-movie-mkv.html
p296
aV/movie/9475/Arrow-s07-all-episodes-hdtv-720p.html
p297
aV/movie/9434/Supergirl-season-4-web-dl-complete-series-english-720p-full-series-mkv.html
p298
aV/movie/9398/The-adventures-of-sherlock-holmes-1985-s02-complete-dual-audio-hindi-720p.html
p299
aV/movie/9397/The-adventures-of-sherlock-holmes-1984-s01-complete-dual-audio-hindi-720p.html
p300
aVhttp://moviemad.biz/movie/9311/Blade-trinity-2004-bluray-dual-audio-hindi-720p-480p-full-movie-mkv.html
p301
aVhttp://moviemad.biz/movie/9310/Blade-ii-2002-bluray-dual-audio-hindi-720p-480p-full-movie-mkv.html
p302
aVhttp://moviemad.biz/movie/9309/Blade-1998-bluray-dual-audio-hindi-720p-480p-full-movie-mkv.html
p303
aVhttps://moviemad.pw/movie/9989/Avengers-endgame-(2019)-dual-audio-hindi-720p-480p-1080p-full-movie-mkv.html
p304
aVhttp://moviemad.pw/movie/9281/Guardians-of-the-galaxy-vol-2-(2017)-bluray-dual-audio-hindi-org-720p-480p-full-movie-mkv.html
p305
aVhttp://moviemad.pw/movie/9282/Guardians-of-the-galaxy-2014-bluray-dual-audio-hindi-720p-480p-full-movie-mkv.html
p306
aVhttp://moviemad.pw/movie/8379/Avengers-infinity-war-(2018)-dual-audio-hindi-720p-480p-full-movie-mkv.html
p307
aVhttp://moviemad.pw/movie/8787/Avengers-age-of-ultron-2015-bluray-dual-audio-hindi-720p-480p-full-movie-mkv.html
p308
aVhttp://moviemad.biz/movie/8689/The-avengers-(2012)-bluray-dual-audio-hindi-720p-480p-1080p-mkv.html
p309
aVhttp://moviemad.name/movie/8207/Ant-man-and-the-wasp-2018-dual-audio-hindi-720p-480p-full-movie-mkv.html
p310
aVhttp://moviemad.pw/movie/9271/Ant-man-(2015)-bluray-dual-audio-hindi-720p-480p-movie-mkv.html
p311
aVhttp://moviemad.pw/movie/8349/Deadpool-2-(2018)-dual-audio-hindi-full-movie-720p-480p-mkv.html
p312
aVhttp://moviemad.biz/movie/8606/Deadpool-2016-bluray-dual-audio-hindi-720p-480p-mkv.html
p313
aVhttp://moviemad.name/movie/7990/Black-panther-2018-bluray-dual-audio-hindi-720p-480p-.html
p314
aVhttp://moviemad.biz/movie/9260/Hulk-2003-bluray-dual-audio-hindi-720p-480p-full-movie-mkv.html
p315
aVhttp://moviemad.name/movie/9261/The-incredible-hulk-2008-bluray-dual-audio-hindi-720p-480p-full-movie-mkv.html
p316
aVhttp://moviemad.name/movie/8823/Iron-man-3-(2013)-bluray-dual-audio-hindi-720p-480p-movie-mkv.html
p317
aVhttp://moviemad.name/movie/8822/Iron-man-2-(2010)-bluray-dual-audio-hindi-720p-480p-movie-mkv.html
p318
aVhttp://moviemad.name/movie/9257/Iron-man-2008-bluray-dual-audio-hindi-720p-480p-full-movie-mkv.html
p319
aVhttp://moviemad.pw/movie/9225/Captain-america-civil-war-2016-bluray-dual-audio-hindi-1080p-720p-480p-full-movie-mkv.html
p320
aVhttp://moviemad.name/movie/9253/Captain-america-the-winter-soldier-(2014)-bluray-dual-audio-hindi-720p-480p-movie-mkv.html
p321
aVhttp://moviemad.name/movie/8189/Captain-america-the-first-avenger-2011-bluray-dual-audio-hindi-720p-480p-mkv.html
p322
aVhttp://moviemad.pw/movie/8252/Thor-ragnarok-2017-bluray-dual-audio-hindi-org-720p-480p-mkv.html
p323
aVhttp://moviemad.pw/movie/8877/Thor-the-dark-world-2013-bluray-dual-audio-hindi-720p-480p-full-movie-mkv.html
p324
aVhttp://moviemad.pw/movie/8878/Thor-2011-bluray-dual-audio-hindi-720p-480p-movie-mkv.html
p325
aV/movie/9223/Selection-day-season-1-web-dl-complete-series-dual-audio-hindi-720p-full-series-mkv.html
p326
aVhttp://moviemad.biz/movie/9209/Cars-2006-bluray-dual-audio-hindi-720p-480p-full-movie-mkv.html
p327
aVhttp://moviemad.biz/movie/9210/Cars-2-2011-bluray-dual-audio-hindi-720p-480p-full-movie-mkv.html
p328
aVhttp://moviemad.biz/movie/9211/Cars-3-2017-bluray-dual-audio-hindi-org-720p-480p-full-movie-mkv.html
p329
aV/movie/9208/The-dangerous-book-for-boys-s01-(2018)-dual-audio-hindi-complete-web-dl-720p-480p-mkv.html
p330
aV/movie/9160/The-protector-season-1-web-dl-complete-series-dual-audio-hindi-720p-full-series-mkv.html
p331
aV/movie/9076/Byomkesh-(2017)-all-seasons-bluray-all-episodes-in-dual-audio-hindi.html
p332
aV/movie/9060/Game-of-thrones-s03-bluray-complete-series-dual-audio-hindi-720p-full-series-mkv.html
p333
aVhttp://moviemad.pw/movie/9025/Goosebumps-(2015)-bluray-dual-audio-hindi-720p-480p-movie-mkv.html
p334
aVhttp://moviemad.pw/movie/8903/Goosebumps-2-haunted-halloween-(2018)-bluray-dual-audio-hindi-720p-480p-movie-mkv.html
p335
aV/movie/8950/The-purge-2018-complete-hindi-dubbed-720p-full-show-download-mkv.html
p336
aV/movie/8912/Vikings-season-2-complete-dual-audio-hindi-720p-full-show.html
p337
aV/movie/8894/Super-monsters-s02-web-dl-series-dual-audio-hindi-720p-mkv.html
p338
aVhttp://moviemad.pw/movie/8747/The-hobbit-the-battle-of-the-five-armies-(2014)-bluray-dual-audio-hindi-720p-480p-mkv.html
p339
aVhttp://moviemad.pw/movie/8683/The-hobbit-the-desolation-of-smaug-2013-brrip-dual-audio-hindi-720p-480p-full-movie-mkv.html
p340
aVhttp://moviemad.pw/movie/8682/The-hobbit-an-unexpected-journey-2012-extended-bluray-dual-audio-hindi-720p-480p-full-movie-mkv.html
p341
aV/movie/8657/The-originals-s01-bluray-complete-series-dual-audio-hindi-720p-mkv.html
p342
aVhttp://moviemad.io/movie/8025/Rio-(2011)-bluray-dual-audio-hindi-720p-480p-mkv.html
p343
aVhttp://moviemad.io/movie/8636/Rio-2-2014-bluray-dual-audio-hindi-720p-480p-full-movie-mkv.html
p344
aV/movie/8631/Game-of-thrones-s02-bluray-complete-series-dual-audio-hindi-720p-full-series-mkv.html
p345
aV/movie/8569/Ghoul-2018-season-01-all-epidodes-hdrip-dual-audio-hindi-720p-480p-full-show.html
p346
aV/movie/8482/The-flash-s01-all-epidodes-bluray-dual-audio-hindi-720p-480p-full-show.html
p347
aV/movie/8458/Super-monsters-s01-all-epidodes-(2017)-webrip-dual-audio-hindi-720p-480p-mkv.html
p348
aVhttps://moviemad.today/movie/11873/The-maze-runner-(2014)-bluray-dual-audio-hindi-720p-480p-movie-mkv.html
p349
aVhttp://moviemad.today/movie/8420/Maze-runner-the-scorch-trials-(2015)--bluray-dual-audio-hindi-720p-480p-full-movie-mkv.html
p350
aVhttp://moviemad.today/movie/8230/Maze-runner-the-death-cure-(2018)-bluray-dual-audio-hindi-720p-480p-full-movie-download-mkv.html
p351
aV/movie/8322/The-100-season-1-complete-dual-audio-hindi-720p-full-show.html
p352
aVhttp://moviemad.name/movie/8361/Mission-impossible-fallout-(2018)-dual-audio-hindi-720p-480p-full-movie-mkv.html
p353
aVhttp://moviemad.name/movie/8386/Mission-impossible--rogue-nation-(2015)-bluray-dual-audio-hindi-720p-480p-1080p-full-movie-mkv.html
p354
aVhttp://moviemad.name/movie/8269/Mission-impossible--ghost-protocol-(2011)-bluray-dual-audio-hindi-720p-480p-mkv.html
p355
aVhttp://moviemad.name/movie/8268/Mission-impossible-iii-(2006)-bluray-dual-audio-hindi-720p-480p-full-movie-mkv.html
p356
aVhttp://moviemad.name/movie/8267/Mission-impossible-ii-(2000)-bluray-dual-audio-hindi-720p-480p-full-movie-mkv.html
p357
aVhttp://moviemad.name/movie/8266/Mission-impossible-(1996)-bluray-dual-audio-hindi-720p-480p-full-movie-mkv.html
p358
aV/movie/8236/Vikings-season-1-complete-dual-audio-hindi-720p-full-show.html
p359
aV/movie/8699/Genius-s02e07-bluray-all-episodes-download-in-english-hindi-audio.html
p360
aV/movie/8586/Genius-s02e06-bluray-all-episodes-download-in-english-hindi-audio.html
p361
aV/movie/8585/Genius-s02e05-bluray-all-episodes-download-in-english-hindi-audio.html
p362
aV/movie/8583/Genius-s02e04-bluray-all-episodes-download-in-english-hindi-audio.html
p363
aV/movie/8582/Genius-s02e03-bluray-all-episodes-download-in-english-hindi-audio.html
p364
aV/movie/8214/Genius-s02e02-bluray-all-episodes-download-in-english-hindi-audio.html
p365
aV/movie/8190/Genius-s02e01-bluray-all-episodes-download-in-hindi-audio-english.html
p366
aVhttp://moviemad.name/movie/8173/Kung-fu-panda-3-(2016)-bluray-dual-audio-hindi-720p-480p-full-movie-download-mkv.html
p367
aVhttp://moviemad.name/movie/8172/Kung-fu-panda-2-(2011)-brrip-dual-audio-hindi-720p-480p-1080p-mkv.html
p368
aVhttp://moviemad.name/movie/8171/Kung-fu-panda-(2008)-bluray-dual-audio-hindi-720p-480p-mkv.html
p369
aVhttp://moviemad.name/movie/8139/Harry-potter-and-the-deathly-hallows-part-2-(2011)-bluray-dual-audio-hindi-720p-480p-1080p-movie-mkv.html
p370
aVhttp://moviemad.name/movie/8136/Harry-potter-7-and-deathly-hallows-part-1-(2010)-bluray-dual-audio-hindi-720p-480p-movie-mkv.html
p371
aVhttp://moviemad.name/movie/8135/Harry-potter-and-the-half-blood-prince-(2009)-bluray-dual-audio-hindi-720p-480p-1080p-movie-mkv.html
p372
aVhttp://moviemad.name/movie/8133/Harry-potter-and-the-order-of-the-phoenix-2007-bdrip-multi-audios-hindi-720p-480p-mkv.html
p373
aVhttp://moviemad.name/movie/8132/Harry-potter-4-and-the-goblet-of-fire-2005-bdrip-multi-audios-hindi-720p-480p-mkv.html
p374
aVhttp://moviemad.name/movie/8130/Harry-potter-and-the-prisoner-of-azkaban-2004-bdrip-multi-audios-hindi-720p-480p-mkv.html
p375
aVhttp://moviemad.name/movie/8128/Harry-potter-and-the-chamber-of-secrets-(2002)-bluray-dual-audio-hindi-720p-480p-mkv.html
p376
aVhttp://moviemad.name/movie/8127/Harry-potter-and-the-sorcerers-stone-(2001)-extended-bluray-dual-audio-hindi-720p-480p-mkv.html
p377
aV/movie/8092/Game-of-thrones-s01-bluray-complete-series-dual-audio-hindi-720p-full-series-mkv.html
p378
a.